; Function Attrs: nofree nounwind sspstrong memory(argmem: readwrite) uwtable
define dso_local void @onig_strcpy(ptr noundef %0, ptr noundef %1, ptr noundef %2) local_unnamed_addr #3 {
  %4 = ptrtoint ptr %2 to i64
  %5 = ptrtoint ptr %1 to i64
  %6 = sub i64 %4, %5
  %7 = icmp sgt i64 %6, 0
  br i1 %7, label %8, label %10

8:                                                ; preds = %3
  tail call void @llvm.memcpy.p0.p0.i64(ptr noundef nonnull align 1 %0, ptr noundef nonnull align 1 %1, i64 noundef %6, i1 noundef false) #25
  %9 = getelementptr i8, ptr %0, i64 %6
  store i8 0, ptr %9, align 1, !tbaa !13
  br label %10

10:                                               ; preds = %8, %3
  ret void
}